target datalayout = "e-m:e-p270:32:32-p271:32:32-p272:64:64-i64:64-i128:128-f80:128-n8:16:32:64-S128"
target triple = "x86_64-pc-linux-gnu"

%struct.pmix_mca_base_framework_t = type { ptr, ptr, ptr, ptr, ptr, ptr, i32, i32, ptr, ptr, i32, i32, %struct.pmix_list_t, %struct.pmix_list_t }
%struct.pmix_list_t = type { %struct.pmix_object_t, %struct.pmix_list_item_t, i64 }
%struct.pmix_object_t = type { %union.pthread_mutex_t, ptr, i32, %struct.pmix_tma }
%union.pthread_mutex_t = type { %struct.__pthread_mutex_s }
%struct.__pthread_mutex_s = type { i32, i32, i32, i32, i32, i16, i16, %struct.__pthread_internal_list }
%struct.__pthread_internal_list = type { ptr, ptr }
%struct.pmix_tma = type { ptr, ptr, ptr, ptr, ptr, ptr, ptr, ptr }
%struct.pmix_list_item_t = type { %struct.pmix_object_t, ptr, ptr, i32 }
%struct.pmix_output_desc_t = type { i8, i8, i32, i8, i32, ptr, ptr, i32, ptr, i32, i8, i8, i8, i8, ptr, i32, i32 }
%union.__CONST_SOCKADDR_ARG = type { ptr }
%struct.sockaddr_storage = type { i16, [118 x i8], i64 }

@pmix_ptl_base_framework = external global %struct.pmix_mca_base_framework_t, align 8
@pmix_output_info = external global [0 x %struct.pmix_output_desc_t], align 8
@.str.13 = private unnamed_addr constant [50 x i8] c"ptl_base_connect: attempting to connect to server\00", align 1
@.str.14 = private unnamed_addr constant [46 x i8] c"pmix:create_socket: socket() failed: %s (%d)\0A\00", align 1
@.str.15 = private unnamed_addr constant [68 x i8] c"pmix_ptl_base_connect: attempting to connect to server on socket %d\00", align 1
@.str.16 = private unnamed_addr constant [24 x i8] c"Connect failed: %s (%d)\00", align 1

; Function Attrs: nounwind uwtable
define i32 @pmix_ptl_base_connect(ptr noundef %0, i32 noundef %1, ptr noundef %2) #0 {
  %4 = alloca i32, align 4
  %5 = alloca ptr, align 8
  %6 = alloca i32, align 4
  %7 = alloca ptr, align 8
  %8 = alloca i32, align 4
  %9 = alloca i32, align 4
  %10 = alloca i32, align 4
  %11 = alloca %union.__CONST_SOCKADDR_ARG, align 8
  %12 = alloca i32, align 4
  store ptr %0, ptr %5, align 8, !tbaa !27
  store i32 %1, ptr %6, align 4, !tbaa !3
  store ptr %2, ptr %7, align 8, !tbaa !29
  call void @llvm.lifetime.start.p0(i64 4, ptr %8) #11
  store i32 -1, ptr %8, align 4, !tbaa !3
  call void @llvm.lifetime.start.p0(i64 4, ptr %9) #11
  call void @llvm.lifetime.start.p0(i64 4, ptr %10) #11
  store i32 -1, ptr %10, align 4, !tbaa !3
  %13 = load i32, ptr getelementptr inbounds nuw (%struct.pmix_mca_base_framework_t, ptr @pmix_ptl_base_framework, i32 0, i32 11), align 4, !tbaa !12
  %14 = icmp sge i32 %13, 0
  br i1 %14, label %15, label %27

15:                                               ; preds = %3
  %16 = load i32, ptr getelementptr inbounds nuw (%struct.pmix_mca_base_framework_t, ptr @pmix_ptl_base_framework, i32 0, i32 11), align 4, !tbaa !12
  %17 = icmp slt i32 %16, 64
  br i1 %17, label %18, label %27

18:                                               ; preds = %15
  %19 = load i32, ptr getelementptr inbounds nuw (%struct.pmix_mca_base_framework_t, ptr @pmix_ptl_base_framework, i32 0, i32 11), align 4, !tbaa !12
  %20 = sext i32 %19 to i64
  %21 = getelementptr inbounds [0 x %struct.pmix_output_desc_t], ptr @pmix_output_info, i64 0, i64 %20
  %22 = getelementptr inbounds nuw %struct.pmix_output_desc_t, ptr %21, i32 0, i32 2
  %23 = load i32, ptr %22, align 4, !tbaa !21
  %24 = icmp sge i32 %23, 2
  br i1 %24, label %25, label %27

25:                                               ; preds = %18
  %26 = load i32, ptr getelementptr inbounds nuw (%struct.pmix_mca_base_framework_t, ptr @pmix_ptl_base_framework, i32 0, i32 11), align 4, !tbaa !12
  call void (i32, ptr, ...) @pmix_output(i32 noundef %26, ptr noundef @.str.13)
  br label %27

27:                                               ; preds = %25, %18, %15, %3
  %28 = load ptr, ptr %5, align 8, !tbaa !27
  %29 = getelementptr inbounds nuw %struct.sockaddr_storage, ptr %28, i32 0, i32 0
  %30 = load i16, ptr %29, align 8, !tbaa !31
  %31 = zext i16 %30 to i32
  %32 = call i32 @socket(i32 noundef %31, i32 noundef 1, i32 noundef 0) #11
  store i32 %32, ptr %8, align 4, !tbaa !3
  br label %33

33:                                               ; preds = %112, %41, %27
  %34 = load i32, ptr %10, align 4, !tbaa !3
  %35 = icmp slt i32 %34, 10
  br i1 %35, label %36, label %115

36:                                               ; preds = %33
  %37 = load i32, ptr %10, align 4, !tbaa !3
  %38 = add nsw i32 %37, 1
  store i32 %38, ptr %10, align 4, !tbaa !3
  %39 = load i32, ptr %8, align 4, !tbaa !3
  %40 = icmp slt i32 %39, 0
  br i1 %40, label %41, label %52

41:                                               ; preds = %36
  %42 = call ptr @__errno_location() #12
  %43 = load i32, ptr %42, align 4, !tbaa !3
  %44 = call ptr @strerror(i32 noundef %43) #11
  %45 = call ptr @__errno_location() #12
  %46 = load i32, ptr %45, align 4, !tbaa !3
  call void (i32, ptr, ...) @pmix_output(i32 noundef 0, ptr noundef @.str.14, ptr noundef %44, i32 noundef %46)
  %47 = load ptr, ptr %5, align 8, !tbaa !27
  %48 = getelementptr inbounds nuw %struct.sockaddr_storage, ptr %47, i32 0, i32 0
  %49 = load i16, ptr %48, align 8, !tbaa !31
  %50 = zext i16 %49 to i32
  %51 = call i32 @socket(i32 noundef %50, i32 noundef 1, i32 noundef 0) #11
  store i32 %51, ptr %8, align 4, !tbaa !3
  br label %33, !llvm.loop !34

52:                                               ; preds = %36
  %53 = load i32, ptr getelementptr inbounds nuw (%struct.pmix_mca_base_framework_t, ptr @pmix_ptl_base_framework, i32 0, i32 11), align 4, !tbaa !12
  %54 = icmp sge i32 %53, 0
  br i1 %54, label %55, label %68

55:                                               ; preds = %52
  %56 = load i32, ptr getelementptr inbounds nuw (%struct.pmix_mca_base_framework_t, ptr @pmix_ptl_base_framework, i32 0, i32 11), align 4, !tbaa !12
  %57 = icmp slt i32 %56, 64
  br i1 %57, label %58, label %68

58:                                               ; preds = %55
  %59 = load i32, ptr getelementptr inbounds nuw (%struct.pmix_mca_base_framework_t, ptr @pmix_ptl_base_framework, i32 0, i32 11), align 4, !tbaa !12
  %60 = sext i32 %59 to i64
  %61 = getelementptr inbounds [0 x %struct.pmix_output_desc_t], ptr @pmix_output_info, i64 0, i64 %60
  %62 = getelementptr inbounds nuw %struct.pmix_output_desc_t, ptr %61, i32 0, i32 2
  %63 = load i32, ptr %62, align 4, !tbaa !21
  %64 = icmp sge i32 %63, 2
  br i1 %64, label %65, label %68

65:                                               ; preds = %58
  %66 = load i32, ptr getelementptr inbounds nuw (%struct.pmix_mca_base_framework_t, ptr @pmix_ptl_base_framework, i32 0, i32 11), align 4, !tbaa !12
  %67 = load i32, ptr %8, align 4, !tbaa !3
  call void (i32, ptr, ...) @pmix_output(i32 noundef %66, ptr noundef @.str.15, i32 noundef %67)
  br label %68

68:                                               ; preds = %65, %58, %55, %52
  %69 = load i32, ptr %8, align 4, !tbaa !3
  %70 = load ptr, ptr %5, align 8, !tbaa !27
  store ptr %70, ptr %11, align 8, !tbaa !35
  %71 = load i32, ptr %6, align 4, !tbaa !3
  %72 = getelementptr inbounds nuw %union.__CONST_SOCKADDR_ARG, ptr %11, i32 0, i32 0
  %73 = load ptr, ptr %72, align 8
  %74 = call i32 @connect(i32 noundef %69, ptr %73, i32 noundef %71)
  %75 = icmp slt i32 %74, 0
  br i1 %75, label %76, label %114

76:                                               ; preds = %68
  %77 = load i32, ptr getelementptr inbounds nuw (%struct.pmix_mca_base_framework_t, ptr @pmix_ptl_base_framework, i32 0, i32 11), align 4, !tbaa !12
  %78 = icmp sge i32 %77, 0
  br i1 %78, label %79, label %96

79:                                               ; preds = %76
  %80 = load i32, ptr getelementptr inbounds nuw (%struct.pmix_mca_base_framework_t, ptr @pmix_ptl_base_framework, i32 0, i32 11), align 4, !tbaa !12
  %81 = icmp slt i32 %80, 64
  br i1 %81, label %82, label %96

82:                                               ; preds = %79
  %83 = load i32, ptr getelementptr inbounds nuw (%struct.pmix_mca_base_framework_t, ptr @pmix_ptl_base_framework, i32 0, i32 11), align 4, !tbaa !12
  %84 = sext i32 %83 to i64
  %85 = getelementptr inbounds [0 x %struct.pmix_output_desc_t], ptr @pmix_output_info, i64 0, i64 %84
  %86 = getelementptr inbounds nuw %struct.pmix_output_desc_t, ptr %85, i32 0, i32 2
  %87 = load i32, ptr %86, align 4, !tbaa !21
  %88 = icmp sge i32 %87, 2
  br i1 %88, label %89, label %96

89:                                               ; preds = %82
  %90 = load i32, ptr getelementptr inbounds nuw (%struct.pmix_mca_base_framework_t, ptr @pmix_ptl_base_framework, i32 0, i32 11), align 4, !tbaa !12
  %91 = call ptr @__errno_location() #12
  %92 = load i32, ptr %91, align 4, !tbaa !3
  %93 = call ptr @strerror(i32 noundef %92) #11
  %94 = call ptr @__errno_location() #12
  %95 = load i32, ptr %94, align 4, !tbaa !3
  call void (i32, ptr, ...) @pmix_output(i32 noundef %90, ptr noundef @.str.16, ptr noundef %93, i32 noundef %95)
  br label %96

96:                                               ; preds = %89, %82, %79, %76
  %97 = load ptr, ptr %5, align 8, !tbaa !27
  %98 = getelementptr inbounds nuw %struct.sockaddr_storage, ptr %97, i32 0, i32 0
  %99 = load i16, ptr %98, align 8, !tbaa !31
  %100 = zext i16 %99 to i32
  %101 = call i32 @socket(i32 noundef %100, i32 noundef 1, i32 noundef 0) #11
  store i32 %101, ptr %9, align 4, !tbaa !3
  br label %102

102:                                              ; preds = %96
  %103 = load i32, ptr %8, align 4, !tbaa !3
  %104 = icmp sle i32 0, %103
  br i1 %104, label %105, label %110

105:                                              ; preds = %102
  %106 = load i32, ptr %8, align 4, !tbaa !3
  %107 = call i32 @shutdown(i32 noundef %106, i32 noundef 2) #11
  %108 = load i32, ptr %8, align 4, !tbaa !3
  %109 = call i32 @close(i32 noundef %108)
  store i32 -1, ptr %8, align 4, !tbaa !3
  br label %110

110:                                              ; preds = %105, %102
  br label %111

111:                                              ; preds = %110
  br label %112

112:                                              ; preds = %111
  %113 = load i32, ptr %9, align 4, !tbaa !3
  store i32 %113, ptr %8, align 4, !tbaa !3
  br label %33, !llvm.loop !34

114:                                              ; preds = %68
  br label %115

115:                                              ; preds = %114, %33
  %116 = load i32, ptr %10, align 4, !tbaa !3
  %117 = icmp eq i32 %116, 10
  br i1 %117, label %121, label %118

118:                                              ; preds = %115
  %119 = load i32, ptr %8, align 4, !tbaa !3
  %120 = icmp slt i32 %119, 0
  br i1 %120, label %121, label %137

121:                                              ; preds = %118, %115
  %122 = load i32, ptr %8, align 4, !tbaa !3
  %123 = icmp sle i32 0, %122
  br i1 %123, label %124, label %136

124:                                              ; preds = %121
  br label %125

125:                                              ; preds = %124
  %126 = load i32, ptr %8, align 4, !tbaa !3
  %127 = icmp sle i32 0, %126
  br i1 %127, label %128, label %133

128:                                              ; preds = %125
  %129 = load i32, ptr %8, align 4, !tbaa !3
  %130 = call i32 @shutdown(i32 noundef %129, i32 noundef 2) #11
  %131 = load i32, ptr %8, align 4, !tbaa !3
  %132 = call i32 @close(i32 noundef %131)
  store i32 -1, ptr %8, align 4, !tbaa !3
  br label %133

133:                                              ; preds = %128, %125
  br label %134

134:                                              ; preds = %133
  br label %135

135:                                              ; preds = %134
  br label %136

136:                                              ; preds = %135, %121
  store i32 -25, ptr %4, align 4
  store i32 1, ptr %12, align 4
  br label %140

137:                                              ; preds = %118
  %138 = load i32, ptr %8, align 4, !tbaa !3
  %139 = load ptr, ptr %7, align 8, !tbaa !29
  store i32 %138, ptr %139, align 4, !tbaa !3
  store i32 0, ptr %4, align 4
  store i32 1, ptr %12, align 4
  br label %140

140:                                              ; preds = %137, %136
  call void @llvm.lifetime.end.p0(i64 4, ptr %10) #11
  call void @llvm.lifetime.end.p0(i64 4, ptr %9) #11
  call void @llvm.lifetime.end.p0(i64 4, ptr %8) #11
  %141 = load i32, ptr %4, align 4
  ret i32 %141
}