; Function Attrs: nounwind uwtable
define range(i32 -25, 1) i32 @pmix_ptl_base_connect(ptr noundef %0, i32 noundef %1, ptr noundef writeonly captures(none) %2) local_unnamed_addr #0 {
  %4 = load i32, ptr getelementptr inbounds nuw (i8, ptr @pmix_ptl_base_framework, i64 76), align 4, !tbaa !7
  %or.cond = icmp ult i32 %4, 64
  br i1 %or.cond, label %5, label %11

5:                                                ; preds = %3
  %6 = zext nneg i32 %4 to i64
  %7 = getelementptr inbounds nuw [0 x %struct.pmix_output_desc_t], ptr @pmix_output_info, i64 0, i64 %6, i32 2
  %8 = load i32, ptr %7, align 4, !tbaa !19
  %9 = icmp sgt i32 %8, 1
  br i1 %9, label %10, label %11

10:                                               ; preds = %5
  tail call void (i32, ptr, ...) @pmix_output(i32 noundef %4, ptr noundef nonnull @.str.13) #14
  br label %11

11:                                               ; preds = %10, %5, %3
  %12 = load i16, ptr %0, align 8, !tbaa !25
  %13 = zext i16 %12 to i32
  %14 = tail call i32 @socket(i32 noundef %13, i32 noundef 1, i32 noundef 0) #14
  br label %15

15:                                               ; preds = %11, %.backedge
  %.03137 = phi i32 [ -1, %11 ], [ %16, %.backedge ]
  %.03236 = phi i32 [ %14, %11 ], [ %.032.be, %.backedge ]
  %16 = add nsw i32 %.03137, 1
  %17 = icmp slt i32 %.03236, 0
  br i1 %17, label %18, label %26

18:                                               ; preds = %15
  %19 = tail call ptr @__errno_location() #15
  %20 = load i32, ptr %19, align 4, !tbaa !3
  %21 = tail call ptr @strerror(i32 noundef %20) #14
  %22 = load i32, ptr %19, align 4, !tbaa !3
  tail call void (i32, ptr, ...) @pmix_output(i32 noundef 0, ptr noundef nonnull @.str.14, ptr noundef %21, i32 noundef %22) #14
  %23 = load i16, ptr %0, align 8, !tbaa !25
  %24 = zext i16 %23 to i32
  %25 = tail call i32 @socket(i32 noundef %24, i32 noundef 1, i32 noundef 0) #14
  br label %.backedge

.backedge:                                        ; preds = %18, %49
  %.032.be = phi i32 [ %25, %18 ], [ %52, %49 ]
  %exitcond.not = icmp eq i32 %16, 10
  br i1 %exitcond.not, label %57, label %15, !llvm.loop !28

26:                                               ; preds = %15
  %27 = load i32, ptr getelementptr inbounds nuw (i8, ptr @pmix_ptl_base_framework, i64 76), align 4, !tbaa !7
  %or.cond3 = icmp ult i32 %27, 64
  br i1 %or.cond3, label %28, label %34

28:                                               ; preds = %26
  %29 = zext nneg i32 %27 to i64
  %30 = getelementptr inbounds nuw [0 x %struct.pmix_output_desc_t], ptr @pmix_output_info, i64 0, i64 %29, i32 2
  %31 = load i32, ptr %30, align 4, !tbaa !19
  %32 = icmp sgt i32 %31, 1
  br i1 %32, label %33, label %34

33:                                               ; preds = %28
  tail call void (i32, ptr, ...) @pmix_output(i32 noundef %27, ptr noundef nonnull @.str.15, i32 noundef %.03236) #14
  br label %34

34:                                               ; preds = %33, %28, %26
  %35 = tail call i32 @connect(i32 noundef %.03236, ptr nonnull %0, i32 noundef %1) #14
  %36 = icmp slt i32 %35, 0
  br i1 %36, label %37, label %55

37:                                               ; preds = %34
  %38 = load i32, ptr getelementptr inbounds nuw (i8, ptr @pmix_ptl_base_framework, i64 76), align 4, !tbaa !7
  %or.cond5 = icmp ult i32 %38, 64
  br i1 %or.cond5, label %39, label %49

39:                                               ; preds = %37
  %40 = zext nneg i32 %38 to i64
  %41 = getelementptr inbounds nuw [0 x %struct.pmix_output_desc_t], ptr @pmix_output_info, i64 0, i64 %40, i32 2
  %42 = load i32, ptr %41, align 4, !tbaa !19
  %43 = icmp sgt i32 %42, 1
  br i1 %43, label %44, label %49

44:                                               ; preds = %39
  %45 = tail call ptr @__errno_location() #15
  %46 = load i32, ptr %45, align 4, !tbaa !3
  %47 = tail call ptr @strerror(i32 noundef %46) #14
  %48 = load i32, ptr %45, align 4, !tbaa !3
  tail call void (i32, ptr, ...) @pmix_output(i32 noundef %38, ptr noundef nonnull @.str.16, ptr noundef %47, i32 noundef %48) #14
  br label %49

49:                                               ; preds = %44, %39, %37
  %50 = load i16, ptr %0, align 8, !tbaa !25
  %51 = zext i16 %50 to i32
  %52 = tail call i32 @socket(i32 noundef %51, i32 noundef 1, i32 noundef 0) #14
  %53 = tail call i32 @shutdown(i32 noundef %.03236, i32 noundef 2) #14
  %54 = tail call i32 @close(i32 noundef %.03236) #14
  br label %.backedge

55:                                               ; preds = %34
  %56 = icmp eq i32 %16, 10
  br i1 %56, label %.thread42, label %61

57:                                               ; preds = %.backedge
  %58 = icmp sgt i32 %.032.be, -1
  br i1 %58, label %.thread42, label %62

.thread42:                                        ; preds = %55, %57
  %.032.lcssa4144 = phi i32 [ %.032.be, %57 ], [ %.03236, %55 ]
  %59 = tail call i32 @shutdown(i32 noundef %.032.lcssa4144, i32 noundef 2) #14
  %60 = tail call i32 @close(i32 noundef %.032.lcssa4144) #14
  br label %62

61:                                               ; preds = %55
  store i32 %.03236, ptr %2, align 4, !tbaa !3
  br label %62

62:                                               ; preds = %57, %.thread42, %61
  %.0 = phi i32 [ 0, %61 ], [ -25, %.thread42 ], [ -25, %57 ]
  ret i32 %.0
}